target datalayout = "e-m:e-p270:32:32-p271:32:32-p272:64:64-i64:64-i128:128-f80:128-n8:16:32:64-S128"
target triple = "x86_64-pc-linux-gnu"

%"struct.Luau::TypeLevel" = type { i32, i32 }
%"struct.Luau::FreeTypePack" = type { i32, %"struct.Luau::TypeLevel", ptr }

; Function Attrs: mustprogress uwtable
define dso_local void @_ZN4Luau12FreeTypePackC2ENS_9TypeLevelE(ptr noundef nonnull align 8 dereferenceable(24) %0, i64 %1) unnamed_addr #2 align 2 {
  %3 = alloca %"struct.Luau::TypeLevel", align 4
  %4 = alloca ptr, align 8
  store i64 %1, ptr %3, align 4
  store ptr %0, ptr %4, align 8, !tbaa !8
  %5 = load ptr, ptr %4, align 8
  %6 = getelementptr inbounds nuw %"struct.Luau::FreeTypePack", ptr %5, i32 0, i32 0
  %7 = call noundef i32 @_ZN4Luau9Unifiable10freshIndexEv()
  store i32 %7, ptr %6, align 8, !tbaa !11
  %8 = getelementptr inbounds nuw %"struct.Luau::FreeTypePack", ptr %5, i32 0, i32 1
  call void @llvm.memcpy.p0.p0.i64(ptr align 4 %8, ptr align 4 %3, i64 8, i1 false), !tbaa.struct !15
  %9 = getelementptr inbounds nuw %"struct.Luau::FreeTypePack", ptr %5, i32 0, i32 2
  store ptr null, ptr %9, align 8, !tbaa !16
  ret void
}