; Function Attrs: mustprogress uwtable
define dso_local void @_ZN4Luau12FreeTypePackC2ENS_9TypeLevelE(ptr noundef nonnull writeonly align 8 captures(none) dereferenceable(24) initializes((0, 12), (16, 24)) %0, i64 %1) unnamed_addr #2 align 2 {
  %3 = tail call noundef i32 @_ZN4Luau9Unifiable10freshIndexEv()
  store i32 %3, ptr %0, align 8, !tbaa !8
  %4 = getelementptr inbounds nuw i8, ptr %0, i64 4
  store i64 %1, ptr %4, align 4
  %5 = getelementptr inbounds nuw i8, ptr %0, i64 16
  store ptr null, ptr %5, align 8, !tbaa !13
  ret void
}